; ModuleID = '33/599.c'
source_filename = "33/599.c"
target datalayout = "e-m:e-p270:32:32-p271:32:32-p272:64:64-i64:64-f80:128-n8:16:32:64-S128"
target triple = "x86_64-pc-linux-gnu"

@.str = private unnamed_addr constant [3 x i8] c"%d\00", align 1
@.str.1 = private unnamed_addr constant [3 x i8] c"%s\00", align 1
@.str.2 = private unnamed_addr constant [4 x i8] c"%s\0A\00", align 1

; Function Attrs: noinline nounwind uwtable
define dso_local i32 @main() #0 {
  %1 = alloca i32, align 4
  %2 = alloca [300 x i8], align 16
  %3 = alloca i8, align 1
  %4 = alloca i8, align 1
  %5 = alloca i8, align 1
  %6 = alloca i8, align 1
  %7 = alloca i32, align 4
  %8 = alloca i32, align 4
  %9 = alloca i32, align 4
  store i32 0, i32* %1, align 4
  store i8 65, i8* %3, align 1
  store i8 84, i8* %4, align 1
  store i8 71, i8* %5, align 1
  store i8 67, i8* %6, align 1
  %10 = call i32 (i8*, ...) @__isoc99_scanf(i8* getelementptr inbounds ([3 x i8], [3 x i8]* @.str, i64 0, i64 0), i32* %7)
  store i32 0, i32* %8, align 4
  br label %11

11:                                               ; preds = %89, %0
  %12 = load i32, i32* %8, align 4
  %13 = load i32, i32* %7, align 4
  %14 = icmp slt i32 %12, %13
  br i1 %14, label %15, label %92

15:                                               ; preds = %11
  %16 = call i32 (i8*, ...) @__isoc99_scanf(i8* getelementptr inbounds ([3 x i8], [3 x i8]* @.str.1, i64 0, i64 0), [300 x i8]* %2)
  store i32 0, i32* %9, align 4
  br label %17

17:                                               ; preds = %83, %15
  %18 = load i32, i32* %9, align 4
  %19 = sext i32 %18 to i64
  %20 = getelementptr inbounds [300 x i8], [300 x i8]* %2, i64 0, i64 %19
  %21 = load i8, i8* %20, align 1
  %22 = icmp ne i8 %21, 0
  br i1 %22, label %23, label %86

23:                                               ; preds = %17
  %24 = load i32, i32* %9, align 4
  %25 = sext i32 %24 to i64
  %26 = getelementptr inbounds [300 x i8], [300 x i8]* %2, i64 0, i64 %25
  %27 = load i8, i8* %26, align 1
  %28 = sext i8 %27 to i32
  %29 = load i8, i8* %3, align 1
  %30 = sext i8 %29 to i32
  %31 = icmp eq i32 %28, %30
  br i1 %31, label %32, label %37

32:                                               ; preds = %23
  %33 = load i8, i8* %4, align 1
  %34 = load i32, i32* %9, align 4
  %35 = sext i32 %34 to i64
  %36 = getelementptr inbounds [300 x i8], [300 x i8]* %2, i64 0, i64 %35
  store i8 %33, i8* %36, align 1
  br label %82

37:                                               ; preds = %23
  %38 = load i32, i32* %9, align 4
  %39 = sext i32 %38 to i64
  %40 = getelementptr inbounds [300 x i8], [300 x i8]* %2, i64 0, i64 %39
  %41 = load i8, i8* %40, align 1
  %42 = sext i8 %41 to i32
  %43 = load i8, i8* %4, align 1
  %44 = sext i8 %43 to i32
  %45 = icmp eq i32 %42, %44
  br i1 %45, label %46, label %51

46:                                               ; preds = %37
  %47 = load i8, i8* %3, align 1
  %48 = load i32, i32* %9, align 4
  %49 = sext i32 %48 to i64
  %50 = getelementptr inbounds [300 x i8], [300 x i8]* %2, i64 0, i64 %49
  store i8 %47, i8* %50, align 1
  br label %81

51:                                               ; preds = %37
  %52 = load i32, i32* %9, align 4
  %53 = sext i32 %52 to i64
  %54 = getelementptr inbounds [300 x i8], [300 x i8]* %2, i64 0, i64 %53
  %55 = load i8, i8* %54, align 1
  %56 = sext i8 %55 to i32
  %57 = load i8, i8* %5, align 1
  %58 = sext i8 %57 to i32
  %59 = icmp eq i32 %56, %58
  br i1 %59, label %60, label %65

60:                                               ; preds = %51
  %61 = load i8, i8* %6, align 1
  %62 = load i32, i32* %9, align 4
  %63 = sext i32 %62 to i64
  %64 = getelementptr inbounds [300 x i8], [300 x i8]* %2, i64 0, i64 %63
  store i8 %61, i8* %64, align 1
  br label %80

65:                                               ; preds = %51
  %66 = load i32, i32* %9, align 4
  %67 = sext i32 %66 to i64
  %68 = getelementptr inbounds [300 x i8], [300 x i8]* %2, i64 0, i64 %67
  %69 = load i8, i8* %68, align 1
  %70 = sext i8 %69 to i32
  %71 = load i8, i8* %6, align 1
  %72 = sext i8 %71 to i32
  %73 = icmp eq i32 %70, %72
  br i1 %73, label %74, label %79

74:                                               ; preds = %65
  %75 = load i8, i8* %5, align 1
  %76 = load i32, i32* %9, align 4
  %77 = sext i32 %76 to i64
  %78 = getelementptr inbounds [300 x i8], [300 x i8]* %2, i64 0, i64 %77
  store i8 %75, i8* %78, align 1
  br label %79

79:                                               ; preds = %74, %65
  br label %80

80:                                               ; preds = %79, %60
  br label %81

81:                                               ; preds = %80, %46
  br label %82

82:                                               ; preds = %81, %32
  br label %83

83:                                               ; preds = %82
  %84 = load i32, i32* %9, align 4
  %85 = add nsw i32 %84, 1
  store i32 %85, i32* %9, align 4
  br label %17

86:                                               ; preds = %17
  %87 = getelementptr inbounds [300 x i8], [300 x i8]* %2, i64 0, i64 0
  %88 = call i32 (i8*, ...) @printf(i8* getelementptr inbounds ([4 x i8], [4 x i8]* @.str.2, i64 0, i64 0), i8* %87)
  br label %89

89:                                               ; preds = %86
  %90 = load i32, i32* %8, align 4
  %91 = add nsw i32 %90, 1
  store i32 %91, i32* %8, align 4
  br label %11

92:                                               ; preds = %11
  ret i32 0
}

declare dso_local i32 @__isoc99_scanf(i8*, ...) #1

declare dso_local i32 @printf(i8*, ...) #1


!llvm.module.flags = !{!0}
!llvm.ident = !{!1}

!0 = !{i32 1, !"wchar_size", i32 4}
!1 = !{!"clang version 10.0.0-4ubuntu1 "}
